target datalayout = "e-m:e-p270:32:32-p271:32:32-p272:64:64-i64:64-i128:128-f80:128-n8:16:32:64-S128"
target triple = "x86_64-pc-linux-gnu"

%struct.evhttp_connection = type { %struct.anon, ptr, %struct.event, ptr, i16, ptr, i16, ptr, i64, i64, i32, %struct.timeval, %struct.timeval, %struct.timeval, i32, i32, %struct.timeval, i32, ptr, %struct.evcon_requestq, ptr, ptr, ptr, ptr, %struct.event_callback, ptr, ptr, i32, ptr }
%struct.anon = type { ptr, ptr }
%struct.event = type { %struct.event_callback, %union.anon.1, i32, i16, i16, ptr, %union.anon.3, %struct.timeval }
%union.anon.1 = type { %struct.anon.2 }
%struct.anon.2 = type { ptr, ptr }
%union.anon.3 = type { %struct.anon.4 }
%struct.anon.4 = type { %struct.anon.5, %struct.timeval }
%struct.anon.5 = type { ptr, ptr }
%struct.timeval = type { i64, i64 }
%struct.evcon_requestq = type { ptr, ptr }
%struct.event_callback = type { %struct.anon.0, i16, i8, i8, %union.anon, ptr }
%struct.anon.0 = type { ptr, ptr }
%union.anon = type { ptr }

@event_debug_logging_mask_ = external global i32, align 4
@.str.9 = private unnamed_addr constant [18 x i8] c"%s: strdup failed\00", align 1
@.str.10 = private unnamed_addr constant [32 x i8] c"Attempting connection to %s:%d\0A\00", align 1
@__func__.evhttp_connection_base_bufferevent_new = private unnamed_addr constant [39 x i8] c"evhttp_connection_base_bufferevent_new\00", align 1

; Function Attrs: nounwind uwtable
define ptr @evhttp_connection_base_bufferevent_new(ptr noundef %0, ptr noundef %1, ptr noundef %2, ptr noundef %3, i16 noundef zeroext %4) #0 {
  %6 = alloca ptr, align 8
  %7 = alloca ptr, align 8
  %8 = alloca ptr, align 8
  %9 = alloca ptr, align 8
  %10 = alloca ptr, align 8
  %11 = alloca i16, align 2
  %12 = alloca ptr, align 8
  %13 = alloca i32, align 4
  store ptr %0, ptr %7, align 8
  store ptr %1, ptr %8, align 8
  store ptr %2, ptr %9, align 8
  store ptr %3, ptr %10, align 8
  store i16 %4, ptr %11, align 2
  call void @llvm.lifetime.start.p0(i64 8, ptr %12) #11
  br label %14

14:                                               ; preds = %5
  %15 = load i32, ptr @event_debug_logging_mask_, align 4
  %16 = icmp ne i32 %15, 0
  br i1 %16, label %17, label %21

17:                                               ; preds = %14
  %18 = load ptr, ptr %10, align 8
  %19 = load i16, ptr %11, align 2
  %20 = zext i16 %19 to i32
  call void (ptr, ...) @event_debugx_(ptr noundef @.str.10, ptr noundef %18, i32 noundef %20)
  br label %21

21:                                               ; preds = %17, %14
  br label %22

22:                                               ; preds = %21
  br label %23

23:                                               ; preds = %22
  %24 = load ptr, ptr %7, align 8
  %25 = load ptr, ptr %9, align 8
  %26 = call ptr @evhttp_connection_new_(ptr noundef %24, ptr noundef %25)
  store ptr %26, ptr %12, align 8
  %27 = load ptr, ptr %12, align 8
  %28 = icmp eq ptr %27, null
  br i1 %28, label %29, label %30

29:                                               ; preds = %23
  br label %45

30:                                               ; preds = %23
  %31 = load ptr, ptr %10, align 8
  %32 = call ptr @event_mm_strdup_(ptr noundef %31)
  %33 = load ptr, ptr %12, align 8
  %34 = getelementptr inbounds nuw %struct.evhttp_connection, ptr %33, i32 0, i32 5
  store ptr %32, ptr %34, align 8
  %35 = icmp eq ptr %32, null
  br i1 %35, label %36, label %37

36:                                               ; preds = %30
  call void (ptr, ...) @event_warn(ptr noundef @.str.9, ptr noundef @__func__.evhttp_connection_base_bufferevent_new)
  br label %45

37:                                               ; preds = %30
  %38 = load i16, ptr %11, align 2
  %39 = load ptr, ptr %12, align 8
  %40 = getelementptr inbounds nuw %struct.evhttp_connection, ptr %39, i32 0, i32 6
  store i16 %38, ptr %40, align 8
  %41 = load ptr, ptr %8, align 8
  %42 = load ptr, ptr %12, align 8
  %43 = getelementptr inbounds nuw %struct.evhttp_connection, ptr %42, i32 0, i32 26
  store ptr %41, ptr %43, align 8
  %44 = load ptr, ptr %12, align 8
  store ptr %44, ptr %6, align 8
  store i32 1, ptr %13, align 4
  br label %51

45:                                               ; preds = %36, %29
  %46 = load ptr, ptr %12, align 8
  %47 = icmp ne ptr %46, null
  br i1 %47, label %48, label %50

48:                                               ; preds = %45
  %49 = load ptr, ptr %12, align 8
  call void @evhttp_connection_free(ptr noundef %49)
  br label %50

50:                                               ; preds = %48, %45
  store ptr null, ptr %6, align 8
  store i32 1, ptr %13, align 4
  br label %51

51:                                               ; preds = %50, %37
  call void @llvm.lifetime.end.p0(i64 8, ptr %12) #11
  %52 = load ptr, ptr %6, align 8
  ret ptr %52
}

; Function Attrs: nounwind uwtable
define ptr @evhttp_connection_base_new(ptr noundef %0, ptr noundef %1, ptr noundef %2, i16 noundef zeroext %3) #0 {
  %5 = alloca ptr, align 8
  %6 = alloca ptr, align 8
  %7 = alloca ptr, align 8
  %8 = alloca i16, align 2
  store ptr %0, ptr %5, align 8
  store ptr %1, ptr %6, align 8
  store ptr %2, ptr %7, align 8
  store i16 %3, ptr %8, align 2
  %9 = load ptr, ptr %5, align 8
  %10 = load ptr, ptr %6, align 8
  %11 = load ptr, ptr %7, align 8
  %12 = load i16, ptr %8, align 2
  %13 = call ptr @evhttp_connection_base_bufferevent_new(ptr noundef %9, ptr noundef %10, ptr noundef null, ptr noundef %11, i16 noundef zeroext %12)
  ret ptr %13
}