; Function Attrs: nounwind uwtable
define ptr @evhttp_connection_base_new(ptr noundef %0, ptr noundef %1, ptr noundef %2, i16 noundef zeroext %3) local_unnamed_addr #0 {
  %5 = load i32, ptr @event_debug_logging_mask_, align 4
  %.not.i = icmp eq i32 %5, 0
  br i1 %.not.i, label %8, label %6

6:                                                ; preds = %4
  %7 = zext i16 %3 to i32
  tail call void (ptr, ...) @event_debugx_(ptr noundef nonnull @.str.10, ptr noundef %2, i32 noundef %7) #18
  br label %8

8:                                                ; preds = %6, %4
  %9 = tail call fastcc ptr @evhttp_connection_new_(ptr noundef %0, ptr noundef null)
  %cond.i = icmp eq ptr %9, null
  br i1 %cond.i, label %evhttp_connection_base_bufferevent_new.exit, label %10

10:                                               ; preds = %8
  %11 = tail call ptr @event_mm_strdup_(ptr noundef %2) #18
  %12 = getelementptr inbounds nuw i8, ptr %9, i64 160
  store ptr %11, ptr %12, align 8
  %13 = icmp eq ptr %11, null
  br i1 %13, label %17, label %14

14:                                               ; preds = %10
  %15 = getelementptr inbounds nuw i8, ptr %9, i64 168
  store i16 %3, ptr %15, align 8
  %16 = getelementptr inbounds nuw i8, ptr %9, i64 392
  store ptr %1, ptr %16, align 8
  br label %evhttp_connection_base_bufferevent_new.exit

17:                                               ; preds = %10
  tail call void (ptr, ...) @event_warn(ptr noundef nonnull @.str.9, ptr noundef nonnull @__func__.evhttp_connection_base_bufferevent_new) #18
  tail call void @evhttp_connection_free(ptr noundef nonnull %9)
  br label %evhttp_connection_base_bufferevent_new.exit

evhttp_connection_base_bufferevent_new.exit:      ; preds = %8, %14, %17
  %.0.i = phi ptr [ %9, %14 ], [ null, %8 ], [ null, %17 ]
  ret ptr %.0.i
}